; Function Attrs: nounwind uwtable
define internal noundef i32 @scc_write_header(ptr noundef readonly captures(none) %0) #0 {
  %2 = getelementptr inbounds nuw i8, ptr %0, i64 24
  %3 = load ptr, ptr %2, align 8, !tbaa !4
  %4 = getelementptr inbounds nuw i8, ptr %0, i64 48
  %5 = load ptr, ptr %4, align 8, !tbaa !24
  %6 = load ptr, ptr %5, align 8, !tbaa !25
  tail call void @avpriv_set_pts_info(ptr noundef %6, i32 noundef 64, i32 noundef 1, i32 noundef 1000) #3
  %7 = getelementptr inbounds nuw i8, ptr %0, i64 32
  %8 = load ptr, ptr %7, align 8, !tbaa !27
  %9 = tail call i32 (ptr, ptr, ...) @avio_printf(ptr noundef %8, ptr noundef nonnull @.str.2) #3
  %10 = getelementptr inbounds nuw i8, ptr %3, i64 16
  tail call void @llvm.memset.p0.i64(ptr noundef nonnull align 4 dereferenceable(16) %3, i8 -1, i64 16, i1 false)
  store i32 0, ptr %10, align 4, !tbaa !28
  ret i32 0
}